target datalayout = "e-m:e-p270:32:32-p271:32:32-p272:64:64-i64:64-i128:128-f80:128-n8:16:32:64-S128"
target triple = "x86_64-pc-linux-gnu"

%"class.std::vector.0" = type { %"struct.std::_Vector_base.1" }
%"struct.std::_Vector_base.1" = type { %"struct.std::_Vector_base<std::vector<int>, std::allocator<std::vector<int>>>::_Vector_impl" }
%"struct.std::_Vector_base<std::vector<int>, std::allocator<std::vector<int>>>::_Vector_impl" = type { %"struct.std::_Vector_base<std::vector<int>, std::allocator<std::vector<int>>>::_Vector_impl_data" }
%"struct.std::_Vector_base<std::vector<int>, std::allocator<std::vector<int>>>::_Vector_impl_data" = type { ptr, ptr, ptr }
%"class.std::__cxx11::basic_string" = type { %"struct.std::__cxx11::basic_string<char>::_Alloc_hider", i64, %union.anon }
%"struct.std::__cxx11::basic_string<char>::_Alloc_hider" = type { ptr }
%union.anon = type { i64, [8 x i8] }
%"class.std::vector.6" = type { %"struct.std::_Vector_base.7" }
%"struct.std::_Vector_base.7" = type { %"struct.std::_Vector_base<int, std::allocator<int>>::_Vector_impl" }
%"struct.std::_Vector_base<int, std::allocator<int>>::_Vector_impl" = type { %"struct.std::_Vector_base<int, std::allocator<int>>::_Vector_impl_data" }
%"struct.std::_Vector_base<int, std::allocator<int>>::_Vector_impl_data" = type { ptr, ptr, ptr }
%"class.std::shared_ptr" = type { %"class.std::__shared_ptr" }
%"class.std::__shared_ptr" = type { ptr, %"class.std::__shared_count" }
%"class.std::__shared_count" = type { ptr }
%"class.open_spiel::backgammon::BackgammonState" = type { %"class.open_spiel::State.base", i32, i8, i32, i32, i32, i32, i32, i8, %"class.std::vector.6", %"class.std::vector.6", %"class.std::vector.6", %"class.std::vector.0", %"class.std::vector.29" }
%"class.open_spiel::State.base" = type <{ ptr, %"class.std::shared_ptr", i32, i32, %"class.std::vector.24", i32 }>
%"class.std::vector.24" = type { %"struct.std::_Vector_base.25" }
%"struct.std::_Vector_base.25" = type { %"struct.std::_Vector_base<open_spiel::State::PlayerAction, std::allocator<open_spiel::State::PlayerAction>>::_Vector_impl" }
%"struct.std::_Vector_base<open_spiel::State::PlayerAction, std::allocator<open_spiel::State::PlayerAction>>::_Vector_impl" = type { %"struct.std::_Vector_base<open_spiel::State::PlayerAction, std::allocator<open_spiel::State::PlayerAction>>::_Vector_impl_data" }
%"struct.std::_Vector_base<open_spiel::State::PlayerAction, std::allocator<open_spiel::State::PlayerAction>>::_Vector_impl_data" = type { ptr, ptr, ptr }
%"class.std::vector.29" = type { %"struct.std::_Vector_base.30" }
%"struct.std::_Vector_base.30" = type { %"struct.std::_Vector_base<open_spiel::backgammon::TurnHistoryInfo, std::allocator<open_spiel::backgammon::TurnHistoryInfo>>::_Vector_impl" }
%"struct.std::_Vector_base<open_spiel::backgammon::TurnHistoryInfo, std::allocator<open_spiel::backgammon::TurnHistoryInfo>>::_Vector_impl" = type { %"struct.std::_Vector_base<open_spiel::backgammon::TurnHistoryInfo, std::allocator<open_spiel::backgammon::TurnHistoryInfo>>::_Vector_impl_data" }
%"struct.std::_Vector_base<open_spiel::backgammon::TurnHistoryInfo, std::allocator<open_spiel::backgammon::TurnHistoryInfo>>::_Vector_impl_data" = type { ptr, ptr, ptr }

@.str.27 = private unnamed_addr constant [2 x i8] c" \00", align 1
@.str.34 = private unnamed_addr constant [140 x i8] c"generated/home/dtcxzyw/WorkSpace/Projects/compilers/llvm-opt-benchmark/bench/openspiel/open_spiel/open_spiel/games/backgammon/backgammon.cc\00", align 1
@.str.35 = private unnamed_addr constant [2 x i8] c":\00", align 1
@.str.38 = private unnamed_addr constant [4 x i8] c" = \00", align 1
@.str.39 = private unnamed_addr constant [7 x i8] c", 0 = \00", align 1
@.str.99 = private unnamed_addr constant [23 x i8] c"board_[player][i] >= 0\00", align 1
@.str.100 = private unnamed_addr constant [19 x i8] c"\0Aboard_[player][i]\00", align 1
@.str.101 = private unnamed_addr constant [18 x i8] c"bar_[player] >= 0\00", align 1
@.str.102 = private unnamed_addr constant [14 x i8] c"\0Abar_[player]\00", align 1
@.str.103 = private unnamed_addr constant [21 x i8] c"scores_[player] >= 0\00", align 1
@.str.104 = private unnamed_addr constant [17 x i8] c"\0Ascores_[player]\00", align 1

; Function Attrs: mustprogress nounwind uwtable
define linkonce_odr noundef nonnull align 4 dereferenceable(4) ptr @_ZNKSt6vectorIiSaIiEEixEm(ptr noundef nonnull align 8 dereferenceable(24) %0, i64 noundef %1) #4 comdat align 2 {
  %3 = alloca ptr, align 8
  %4 = alloca i64, align 8
  store ptr %0, ptr %3, align 8
  store i64 %1, ptr %4, align 8
  %5 = load ptr, ptr %3, align 8
  %6 = getelementptr inbounds nuw %"struct.std::_Vector_base.7", ptr %5, i32 0, i32 0
  %7 = getelementptr inbounds nuw %"struct.std::_Vector_base<int, std::allocator<int>>::_Vector_impl_data", ptr %6, i32 0, i32 0
  %8 = load ptr, ptr %7, align 8
  %9 = load i64, ptr %4, align 8
  %10 = getelementptr inbounds i32, ptr %8, i64 %9
  ret ptr %10
}

; Function Attrs: mustprogress nounwind uwtable
define linkonce_odr noundef nonnull align 8 dereferenceable(24) ptr @_ZNKSt6vectorIS_IiSaIiEESaIS1_EEixEm(ptr noundef nonnull align 8 dereferenceable(24) %0, i64 noundef %1) #4 comdat align 2 {
  %3 = alloca ptr, align 8
  %4 = alloca i64, align 8
  store ptr %0, ptr %3, align 8
  store i64 %1, ptr %4, align 8
  %5 = load ptr, ptr %3, align 8
  %6 = getelementptr inbounds nuw %"struct.std::_Vector_base.1", ptr %5, i32 0, i32 0
  %7 = getelementptr inbounds nuw %"struct.std::_Vector_base<std::vector<int>, std::allocator<std::vector<int>>>::_Vector_impl_data", ptr %6, i32 0, i32 0
  %8 = load ptr, ptr %7, align 8
  %9 = load i64, ptr %4, align 8
  %10 = getelementptr inbounds %"class.std::vector.6", ptr %8, i64 %9
  ret ptr %10
}

; Function Attrs: mustprogress uwtable
define noundef i32 @_ZNK10open_spiel10backgammon15BackgammonState18CountTotalCheckersEi(ptr noundef nonnull align 8 dereferenceable(216) %0, i32 noundef %1) #5 align 2 personality ptr @__gxx_personality_v0 {
  %3 = alloca ptr, align 8
  %4 = alloca i32, align 4
  %5 = alloca i32, align 4
  %6 = alloca i32, align 4
  %7 = alloca i32, align 4
  %8 = alloca i32, align 4
  %9 = alloca %"class.std::__cxx11::basic_string", align 8
  %10 = alloca i32, align 4
  %11 = alloca ptr, align 8
  %12 = alloca i32, align 4
  %13 = alloca i32, align 4
  %14 = alloca i32, align 4
  %15 = alloca %"class.std::__cxx11::basic_string", align 8
  %16 = alloca i32, align 4
  %17 = alloca i32, align 4
  %18 = alloca i32, align 4
  %19 = alloca %"class.std::__cxx11::basic_string", align 8
  %20 = alloca i32, align 4
  store ptr %0, ptr %3, align 8
  store i32 %1, ptr %4, align 4
  %21 = load ptr, ptr %3, align 8
  store i32 0, ptr %5, align 4
  store i32 0, ptr %6, align 4
  br label %22

22:                                               ; preds = %56, %2
  %23 = load i32, ptr %6, align 4
  %24 = icmp slt i32 %23, 24
  br i1 %24, label %25, label %59

25:                                               ; preds = %22
  br label %26

26:                                               ; preds = %25
  %27 = getelementptr inbounds nuw %"class.open_spiel::backgammon::BackgammonState", ptr %21, i32 0, i32 12
  %28 = load i32, ptr %4, align 4
  %29 = sext i32 %28 to i64
  %30 = call noundef nonnull align 8 dereferenceable(24) ptr @_ZNKSt6vectorIS_IiSaIiEESaIS1_EEixEm(ptr noundef nonnull align 8 dereferenceable(24) %27, i64 noundef %29) #3
  %31 = load i32, ptr %6, align 4
  %32 = sext i32 %31 to i64
  %33 = call noundef nonnull align 4 dereferenceable(4) ptr @_ZNKSt6vectorIiSaIiEEixEm(ptr noundef nonnull align 8 dereferenceable(24) %30, i64 noundef %32) #3
  %34 = load i32, ptr %33, align 4
  store i32 %34, ptr %7, align 4
  store i32 0, ptr %8, align 4
  %35 = load i32, ptr %7, align 4
  %36 = load i32, ptr %8, align 4
  %37 = icmp sge i32 %35, %36
  br i1 %37, label %44, label %38

38:                                               ; preds = %26
  store i32 862, ptr %10, align 4
  call void @_ZN10open_spiel8internal11SpielStrCatIJRA140_KcRA2_S2_iS6_RA23_S2_RA19_S2_RA4_S2_RiRA7_S2_SD_EEENSt7__cxx1112basic_stringIcSt11char_traitsIcESaIcEEEDpOT_(ptr dead_on_unwind writable sret(%"class.std::__cxx11::basic_string") align 8 %9, ptr noundef nonnull align 1 dereferenceable(140) @.str.34, ptr noundef nonnull align 1 dereferenceable(2) @.str.35, ptr noundef nonnull align 4 dereferenceable(4) %10, ptr noundef nonnull align 1 dereferenceable(2) @.str.27, ptr noundef nonnull align 1 dereferenceable(23) @.str.99, ptr noundef nonnull align 1 dereferenceable(19) @.str.100, ptr noundef nonnull align 1 dereferenceable(4) @.str.38, ptr noundef nonnull align 4 dereferenceable(4) %7, ptr noundef nonnull align 1 dereferenceable(7) @.str.39, ptr noundef nonnull align 4 dereferenceable(4) %8)
  invoke void @_ZN10open_spiel15SpielFatalErrorERKNSt7__cxx1112basic_stringIcSt11char_traitsIcESaIcEEE(ptr noundef nonnull align 8 dereferenceable(32) %9) #17
          to label %39 unwind label %40

39:                                               ; preds = %38
  unreachable

40:                                               ; preds = %38
  %41 = landingpad { ptr, i32 }
          cleanup
  %42 = extractvalue { ptr, i32 } %41, 0
  store ptr %42, ptr %11, align 8
  %43 = extractvalue { ptr, i32 } %41, 1
  store i32 %43, ptr %12, align 4
  call void @_ZNSt7__cxx1112basic_stringIcSt11char_traitsIcESaIcEED1Ev(ptr noundef nonnull align 8 dereferenceable(32) %9) #3
  br label %109

44:                                               ; preds = %26
  br label %45

45:                                               ; preds = %44
  %46 = getelementptr inbounds nuw %"class.open_spiel::backgammon::BackgammonState", ptr %21, i32 0, i32 12
  %47 = load i32, ptr %4, align 4
  %48 = sext i32 %47 to i64
  %49 = call noundef nonnull align 8 dereferenceable(24) ptr @_ZNKSt6vectorIS_IiSaIiEESaIS1_EEixEm(ptr noundef nonnull align 8 dereferenceable(24) %46, i64 noundef %48) #3
  %50 = load i32, ptr %6, align 4
  %51 = sext i32 %50 to i64
  %52 = call noundef nonnull align 4 dereferenceable(4) ptr @_ZNKSt6vectorIiSaIiEEixEm(ptr noundef nonnull align 8 dereferenceable(24) %49, i64 noundef %51) #3
  %53 = load i32, ptr %52, align 4
  %54 = load i32, ptr %5, align 4
  %55 = add nsw i32 %54, %53
  store i32 %55, ptr %5, align 4
  br label %56

56:                                               ; preds = %45
  %57 = load i32, ptr %6, align 4
  %58 = add nsw i32 %57, 1
  store i32 %58, ptr %6, align 4
  br label %22, !llvm.loop !15

59:                                               ; preds = %22
  br label %60

60:                                               ; preds = %59
  %61 = getelementptr inbounds nuw %"class.open_spiel::backgammon::BackgammonState", ptr %21, i32 0, i32 10
  %62 = load i32, ptr %4, align 4
  %63 = sext i32 %62 to i64
  %64 = call noundef nonnull align 4 dereferenceable(4) ptr @_ZNKSt6vectorIiSaIiEEixEm(ptr noundef nonnull align 8 dereferenceable(24) %61, i64 noundef %63) #3
  %65 = load i32, ptr %64, align 4
  store i32 %65, ptr %13, align 4
  store i32 0, ptr %14, align 4
  %66 = load i32, ptr %13, align 4
  %67 = load i32, ptr %14, align 4
  %68 = icmp sge i32 %66, %67
  br i1 %68, label %75, label %69

69:                                               ; preds = %60
  store i32 865, ptr %16, align 4
  call void @_ZN10open_spiel8internal11SpielStrCatIJRA140_KcRA2_S2_iS6_RA18_S2_RA14_S2_RA4_S2_RiRA7_S2_SD_EEENSt7__cxx1112basic_stringIcSt11char_traitsIcESaIcEEEDpOT_(ptr dead_on_unwind writable sret(%"class.std::__cxx11::basic_string") align 8 %15, ptr noundef nonnull align 1 dereferenceable(140) @.str.34, ptr noundef nonnull align 1 dereferenceable(2) @.str.35, ptr noundef nonnull align 4 dereferenceable(4) %16, ptr noundef nonnull align 1 dereferenceable(2) @.str.27, ptr noundef nonnull align 1 dereferenceable(18) @.str.101, ptr noundef nonnull align 1 dereferenceable(14) @.str.102, ptr noundef nonnull align 1 dereferenceable(4) @.str.38, ptr noundef nonnull align 4 dereferenceable(4) %13, ptr noundef nonnull align 1 dereferenceable(7) @.str.39, ptr noundef nonnull align 4 dereferenceable(4) %14)
  invoke void @_ZN10open_spiel15SpielFatalErrorERKNSt7__cxx1112basic_stringIcSt11char_traitsIcESaIcEEE(ptr noundef nonnull align 8 dereferenceable(32) %15) #17
          to label %70 unwind label %71

70:                                               ; preds = %69
  unreachable

71:                                               ; preds = %69
  %72 = landingpad { ptr, i32 }
          cleanup
  %73 = extractvalue { ptr, i32 } %72, 0
  store ptr %73, ptr %11, align 8
  %74 = extractvalue { ptr, i32 } %72, 1
  store i32 %74, ptr %12, align 4
  call void @_ZNSt7__cxx1112basic_stringIcSt11char_traitsIcESaIcEED1Ev(ptr noundef nonnull align 8 dereferenceable(32) %15) #3
  br label %109

75:                                               ; preds = %60
  br label %76

76:                                               ; preds = %75
  %77 = getelementptr inbounds nuw %"class.open_spiel::backgammon::BackgammonState", ptr %21, i32 0, i32 10
  %78 = load i32, ptr %4, align 4
  %79 = sext i32 %78 to i64
  %80 = call noundef nonnull align 4 dereferenceable(4) ptr @_ZNKSt6vectorIiSaIiEEixEm(ptr noundef nonnull align 8 dereferenceable(24) %77, i64 noundef %79) #3
  %81 = load i32, ptr %80, align 4
  %82 = load i32, ptr %5, align 4
  %83 = add nsw i32 %82, %81
  store i32 %83, ptr %5, align 4
  br label %84

84:                                               ; preds = %76
  %85 = getelementptr inbounds nuw %"class.open_spiel::backgammon::BackgammonState", ptr %21, i32 0, i32 11
  %86 = load i32, ptr %4, align 4
  %87 = sext i32 %86 to i64
  %88 = call noundef nonnull align 4 dereferenceable(4) ptr @_ZNKSt6vectorIiSaIiEEixEm(ptr noundef nonnull align 8 dereferenceable(24) %85, i64 noundef %87) #3
  %89 = load i32, ptr %88, align 4
  store i32 %89, ptr %17, align 4
  store i32 0, ptr %18, align 4
  %90 = load i32, ptr %17, align 4
  %91 = load i32, ptr %18, align 4
  %92 = icmp sge i32 %90, %91
  br i1 %92, label %99, label %93

93:                                               ; preds = %84
  store i32 867, ptr %20, align 4
  call void @_ZN10open_spiel8internal11SpielStrCatIJRA140_KcRA2_S2_iS6_RA21_S2_RA17_S2_RA4_S2_RiRA7_S2_SD_EEENSt7__cxx1112basic_stringIcSt11char_traitsIcESaIcEEEDpOT_(ptr dead_on_unwind writable sret(%"class.std::__cxx11::basic_string") align 8 %19, ptr noundef nonnull align 1 dereferenceable(140) @.str.34, ptr noundef nonnull align 1 dereferenceable(2) @.str.35, ptr noundef nonnull align 4 dereferenceable(4) %20, ptr noundef nonnull align 1 dereferenceable(2) @.str.27, ptr noundef nonnull align 1 dereferenceable(21) @.str.103, ptr noundef nonnull align 1 dereferenceable(17) @.str.104, ptr noundef nonnull align 1 dereferenceable(4) @.str.38, ptr noundef nonnull align 4 dereferenceable(4) %17, ptr noundef nonnull align 1 dereferenceable(7) @.str.39, ptr noundef nonnull align 4 dereferenceable(4) %18)
  invoke void @_ZN10open_spiel15SpielFatalErrorERKNSt7__cxx1112basic_stringIcSt11char_traitsIcESaIcEEE(ptr noundef nonnull align 8 dereferenceable(32) %19) #17
          to label %94 unwind label %95

94:                                               ; preds = %93
  unreachable

95:                                               ; preds = %93
  %96 = landingpad { ptr, i32 }
          cleanup
  %97 = extractvalue { ptr, i32 } %96, 0
  store ptr %97, ptr %11, align 8
  %98 = extractvalue { ptr, i32 } %96, 1
  store i32 %98, ptr %12, align 4
  call void @_ZNSt7__cxx1112basic_stringIcSt11char_traitsIcESaIcEED1Ev(ptr noundef nonnull align 8 dereferenceable(32) %19) #3
  br label %109

99:                                               ; preds = %84
  br label %100

100:                                              ; preds = %99
  %101 = getelementptr inbounds nuw %"class.open_spiel::backgammon::BackgammonState", ptr %21, i32 0, i32 11
  %102 = load i32, ptr %4, align 4
  %103 = sext i32 %102 to i64
  %104 = call noundef nonnull align 4 dereferenceable(4) ptr @_ZNKSt6vectorIiSaIiEEixEm(ptr noundef nonnull align 8 dereferenceable(24) %101, i64 noundef %103) #3
  %105 = load i32, ptr %104, align 4
  %106 = load i32, ptr %5, align 4
  %107 = add nsw i32 %106, %105
  store i32 %107, ptr %5, align 4
  %108 = load i32, ptr %5, align 4
  ret i32 %108

109:                                              ; preds = %95, %71, %40
  %110 = load ptr, ptr %11, align 8
  %111 = load i32, ptr %12, align 4
  %112 = insertvalue { ptr, i32 } poison, ptr %110, 0
  %113 = insertvalue { ptr, i32 } %112, i32 %111, 1
  resume { ptr, i32 } %113
}