; Function Attrs: mustprogress uwtable
define noundef i32 @_ZNK10open_spiel10backgammon15BackgammonState18CountTotalCheckersEi(ptr nocapture noundef nonnull readonly align 8 dereferenceable(216) %0, i32 noundef %1) local_unnamed_addr #4 align 2 personality ptr @__gxx_personality_v0 {
  %3 = alloca i32, align 4
  %4 = alloca i32, align 4
  %5 = alloca %"class.std::__cxx11::basic_string", align 8
  %6 = alloca i32, align 4
  %7 = alloca i32, align 4
  %8 = alloca i32, align 4
  %9 = alloca %"class.std::__cxx11::basic_string", align 8
  %10 = alloca i32, align 4
  %11 = alloca i32, align 4
  %12 = alloca i32, align 4
  %13 = alloca %"class.std::__cxx11::basic_string", align 8
  %14 = alloca i32, align 4
  %15 = getelementptr inbounds nuw i8, ptr %0, i64 168
  %16 = sext i32 %1 to i64
  %17 = load ptr, ptr %15, align 8
  %18 = getelementptr inbounds %"class.std::vector.6", ptr %17, i64 %16
  %19 = load ptr, ptr %18, align 8
  br label %20

20:                                               ; preds = %2, %28
  %indvars.iv = phi i64 [ 0, %2 ], [ %indvars.iv.next, %28 ]
  %.01821 = phi i32 [ 0, %2 ], [ %29, %28 ]
  %21 = getelementptr inbounds i32, ptr %19, i64 %indvars.iv
  %22 = load i32, ptr %21, align 4
  store i32 %22, ptr %3, align 4
  store i32 0, ptr %4, align 4
  %23 = icmp sgt i32 %22, -1
  br i1 %23, label %28, label %24

24:                                               ; preds = %20
  store i32 862, ptr %6, align 4
  call void @_ZN10open_spiel8internal11SpielStrCatIJRA140_KcRA2_S2_iS6_RA23_S2_RA19_S2_RA4_S2_RiRA7_S2_SD_EEENSt7__cxx1112basic_stringIcSt11char_traitsIcESaIcEEEDpOT_(ptr dead_on_unwind nonnull writable sret(%"class.std::__cxx11::basic_string") align 8 %5, ptr noundef nonnull align 1 dereferenceable(140) @.str.34, ptr noundef nonnull align 1 dereferenceable(2) @.str.35, ptr noundef nonnull align 4 dereferenceable(4) %6, ptr noundef nonnull align 1 dereferenceable(2) @.str.27, ptr noundef nonnull align 1 dereferenceable(23) @.str.99, ptr noundef nonnull align 1 dereferenceable(19) @.str.100, ptr noundef nonnull align 1 dereferenceable(4) @.str.38, ptr noundef nonnull align 4 dereferenceable(4) %3, ptr noundef nonnull align 1 dereferenceable(7) @.str.39, ptr noundef nonnull align 4 dereferenceable(4) %4)
  invoke void @_ZN10open_spiel15SpielFatalErrorERKNSt7__cxx1112basic_stringIcSt11char_traitsIcESaIcEEE(ptr noundef nonnull align 8 dereferenceable(32) %5) #29
          to label %25 unwind label %26

25:                                               ; preds = %24
  unreachable

26:                                               ; preds = %24
  %27 = landingpad { ptr, i32 }
          cleanup
  br label %53

28:                                               ; preds = %20
  %29 = add nuw nsw i32 %22, %.01821
  %indvars.iv.next = add nuw nsw i64 %indvars.iv, 1
  %exitcond.not = icmp eq i64 %indvars.iv.next, 24
  br i1 %exitcond.not, label %30, label %20, !llvm.loop !37

30:                                               ; preds = %28
  %31 = getelementptr inbounds nuw i8, ptr %0, i64 120
  %32 = load ptr, ptr %31, align 8
  %33 = getelementptr inbounds i32, ptr %32, i64 %16
  %34 = load i32, ptr %33, align 4
  store i32 %34, ptr %7, align 4
  store i32 0, ptr %8, align 4
  %35 = icmp sgt i32 %34, -1
  br i1 %35, label %40, label %36

36:                                               ; preds = %30
  store i32 865, ptr %10, align 4
  call void @_ZN10open_spiel8internal11SpielStrCatIJRA140_KcRA2_S2_iS6_RA18_S2_RA14_S2_RA4_S2_RiRA7_S2_SD_EEENSt7__cxx1112basic_stringIcSt11char_traitsIcESaIcEEEDpOT_(ptr dead_on_unwind nonnull writable sret(%"class.std::__cxx11::basic_string") align 8 %9, ptr noundef nonnull align 1 dereferenceable(140) @.str.34, ptr noundef nonnull align 1 dereferenceable(2) @.str.35, ptr noundef nonnull align 4 dereferenceable(4) %10, ptr noundef nonnull align 1 dereferenceable(2) @.str.27, ptr noundef nonnull align 1 dereferenceable(18) @.str.101, ptr noundef nonnull align 1 dereferenceable(14) @.str.102, ptr noundef nonnull align 1 dereferenceable(4) @.str.38, ptr noundef nonnull align 4 dereferenceable(4) %7, ptr noundef nonnull align 1 dereferenceable(7) @.str.39, ptr noundef nonnull align 4 dereferenceable(4) %8)
  invoke void @_ZN10open_spiel15SpielFatalErrorERKNSt7__cxx1112basic_stringIcSt11char_traitsIcESaIcEEE(ptr noundef nonnull align 8 dereferenceable(32) %9) #29
          to label %37 unwind label %38

37:                                               ; preds = %36
  unreachable

38:                                               ; preds = %36
  %39 = landingpad { ptr, i32 }
          cleanup
  br label %53

40:                                               ; preds = %30
  %41 = getelementptr inbounds nuw i8, ptr %0, i64 144
  %42 = load ptr, ptr %41, align 8
  %43 = getelementptr inbounds i32, ptr %42, i64 %16
  %44 = load i32, ptr %43, align 4
  store i32 %44, ptr %11, align 4
  store i32 0, ptr %12, align 4
  %45 = icmp sgt i32 %44, -1
  br i1 %45, label %50, label %46

46:                                               ; preds = %40
  store i32 867, ptr %14, align 4
  call void @_ZN10open_spiel8internal11SpielStrCatIJRA140_KcRA2_S2_iS6_RA21_S2_RA17_S2_RA4_S2_RiRA7_S2_SD_EEENSt7__cxx1112basic_stringIcSt11char_traitsIcESaIcEEEDpOT_(ptr dead_on_unwind nonnull writable sret(%"class.std::__cxx11::basic_string") align 8 %13, ptr noundef nonnull align 1 dereferenceable(140) @.str.34, ptr noundef nonnull align 1 dereferenceable(2) @.str.35, ptr noundef nonnull align 4 dereferenceable(4) %14, ptr noundef nonnull align 1 dereferenceable(2) @.str.27, ptr noundef nonnull align 1 dereferenceable(21) @.str.103, ptr noundef nonnull align 1 dereferenceable(17) @.str.104, ptr noundef nonnull align 1 dereferenceable(4) @.str.38, ptr noundef nonnull align 4 dereferenceable(4) %11, ptr noundef nonnull align 1 dereferenceable(7) @.str.39, ptr noundef nonnull align 4 dereferenceable(4) %12)
  invoke void @_ZN10open_spiel15SpielFatalErrorERKNSt7__cxx1112basic_stringIcSt11char_traitsIcESaIcEEE(ptr noundef nonnull align 8 dereferenceable(32) %13) #29
          to label %47 unwind label %48

47:                                               ; preds = %46
  unreachable

48:                                               ; preds = %46
  %49 = landingpad { ptr, i32 }
          cleanup
  br label %53

50:                                               ; preds = %40
  %51 = add nuw nsw i32 %34, %29
  %52 = add nuw nsw i32 %51, %44
  ret i32 %52

53:                                               ; preds = %48, %38, %26
  %.sink = phi ptr [ %13, %48 ], [ %9, %38 ], [ %5, %26 ]
  %.pn = phi { ptr, i32 } [ %49, %48 ], [ %39, %38 ], [ %27, %26 ]
  call void @_ZNSt7__cxx1112basic_stringIcSt11char_traitsIcESaIcEED1Ev(ptr noundef nonnull align 8 dereferenceable(32) %.sink) #30
  resume { ptr, i32 } %.pn
}